target datalayout = "e-m:e-p270:32:32-p271:32:32-p272:64:64-i64:64-i128:128-f80:128-n8:16:32:64-S128"
target triple = "x86_64-unknown-linux-gnu"

; Function Attrs: mustprogress nounwind uwtable
define linkonce_odr hidden noundef nonnull align 8 dereferenceable(16) ptr @_ZN3nla3nex6to_sumEv(ptr noundef nonnull align 8 dereferenceable(8) %this) #5 comdat align 2 {
entry:
  %this.addr = alloca ptr, align 8
  store ptr %this, ptr %this.addr, align 8
  %this1 = load ptr, ptr %this.addr, align 8
  ret ptr %this1
}

; Function Attrs: mustprogress nounwind uwtable
define linkonce_odr hidden noundef nonnull align 8 dereferenceable(48) ptr @_ZN3nla3nex6to_mulEv(ptr noundef nonnull align 8 dereferenceable(8) %this) #5 comdat align 2 {
entry:
  %this.addr = alloca ptr, align 8
  store ptr %this, ptr %this.addr, align 8
  %this1 = load ptr, ptr %this.addr, align 8
  ret ptr %this1
}

; Function Attrs: mustprogress nounwind uwtable
define linkonce_odr hidden noundef ptr @_ZN3nla6to_sumEPNS_3nexE(ptr noundef %a) #5 comdat {
entry:
  %a.addr = alloca ptr, align 8
  store ptr %a, ptr %a.addr, align 8
  %0 = load ptr, ptr %a.addr, align 8
  %call = call noundef nonnull align 8 dereferenceable(16) ptr @_ZN3nla3nex6to_sumEv(ptr noundef nonnull align 8 dereferenceable(8) %0)
  ret ptr %call
}

; Function Attrs: mustprogress uwtable
define linkonce_odr hidden noundef zeroext i1 @_ZNK3nla3nex6is_sumEv(ptr noundef nonnull align 8 dereferenceable(8) %this) #4 comdat align 2 {
entry:
  %this.addr = alloca ptr, align 8
  store ptr %this, ptr %this.addr, align 8
  %this1 = load ptr, ptr %this.addr, align 8
  %vtable = load ptr, ptr %this1, align 8
  %vfn = getelementptr inbounds ptr, ptr %vtable, i64 1
  %0 = load ptr, ptr %vfn, align 8
  %call = call noundef i32 %0(ptr noundef nonnull align 8 dereferenceable(8) %this1)
  %cmp = icmp eq i32 %call, 2
  ret i1 %cmp
}

; Function Attrs: mustprogress nounwind uwtable
define linkonce_odr hidden noundef ptr @_ZN3nla6to_mulEPNS_3nexE(ptr noundef %a) #5 comdat {
entry:
  %a.addr = alloca ptr, align 8
  store ptr %a, ptr %a.addr, align 8
  %0 = load ptr, ptr %a.addr, align 8
  %call = call noundef nonnull align 8 dereferenceable(48) ptr @_ZN3nla3nex6to_mulEv(ptr noundef nonnull align 8 dereferenceable(8) %0)
  ret ptr %call
}

; Function Attrs: mustprogress uwtable
define linkonce_odr hidden noundef zeroext i1 @_ZNK3nla3nex6is_mulEv(ptr noundef nonnull align 8 dereferenceable(8) %this) #4 comdat align 2 {
entry:
  %this.addr = alloca ptr, align 8
  store ptr %this, ptr %this.addr, align 8
  %this1 = load ptr, ptr %this.addr, align 8
  %vtable = load ptr, ptr %this1, align 8
  %vfn = getelementptr inbounds ptr, ptr %vtable, i64 1
  %0 = load ptr, ptr %vfn, align 8
  %call = call noundef i32 %0(ptr noundef nonnull align 8 dereferenceable(8) %this1)
  %cmp = icmp eq i32 %call, 3
  ret i1 %cmp
}

; Function Attrs: mustprogress uwtable
define hidden noundef ptr @_ZN3nla11nex_creator8simplifyEPNS_3nexE(ptr noundef nonnull align 8 dereferenceable(176) %this, ptr noundef %e) #4 align 2 {
entry:
  %this.addr = alloca ptr, align 8
  %e.addr = alloca ptr, align 8
  %es = alloca ptr, align 8
  store ptr %this, ptr %this.addr, align 8
  store ptr %e, ptr %e.addr, align 8
  %this1 = load ptr, ptr %this.addr, align 8
  %0 = load ptr, ptr %e.addr, align 8
  %call = call noundef zeroext i1 @_ZNK3nla3nex6is_mulEv(ptr noundef nonnull align 8 dereferenceable(8) %0)
  br i1 %call, label %if.then, label %if.else

if.then:                                          ; preds = %entry
  %1 = load ptr, ptr %e.addr, align 8
  %call2 = call noundef ptr @_ZN3nla6to_mulEPNS_3nexE(ptr noundef %1)
  %call3 = call noundef ptr @_ZN3nla11nex_creator12simplify_mulEPNS_7nex_mulE(ptr noundef nonnull align 8 dereferenceable(176) %this1, ptr noundef %call2)
  store ptr %call3, ptr %es, align 8
  br label %if.end9

if.else:                                          ; preds = %entry
  %2 = load ptr, ptr %e.addr, align 8
  %call4 = call noundef zeroext i1 @_ZNK3nla3nex6is_sumEv(ptr noundef nonnull align 8 dereferenceable(8) %2)
  br i1 %call4, label %if.then5, label %if.else8

if.then5:                                         ; preds = %if.else
  %3 = load ptr, ptr %e.addr, align 8
  %call6 = call noundef ptr @_ZN3nla6to_sumEPNS_3nexE(ptr noundef %3)
  %call7 = call noundef ptr @_ZN3nla11nex_creator12simplify_sumEPNS_7nex_sumE(ptr noundef nonnull align 8 dereferenceable(176) %this1, ptr noundef %call6)
  store ptr %call7, ptr %es, align 8
  br label %if.end

if.else8:                                         ; preds = %if.else
  %4 = load ptr, ptr %e.addr, align 8
  store ptr %4, ptr %es, align 8
  br label %if.end

if.end:                                           ; preds = %if.else8, %if.then5
  br label %if.end9

if.end9:                                          ; preds = %if.end, %if.then
  %5 = load ptr, ptr %es, align 8
  ret ptr %5
}