; Function Attrs: mustprogress uwtable
define hidden noundef ptr @_ZN3nla11nex_creator8simplifyEPNS_3nexE(ptr noundef nonnull align 8 dereferenceable(176) %this, ptr noundef %e) local_unnamed_addr #3 align 2 {
entry:
  %vtable.i = load ptr, ptr %e, align 8
  %vfn.i = getelementptr inbounds i8, ptr %vtable.i, i64 8
  %0 = load ptr, ptr %vfn.i, align 8
  %call.i = tail call noundef i32 %0(ptr noundef nonnull align 8 dereferenceable(8) %e)
  %cmp.i = icmp eq i32 %call.i, 3
  br i1 %cmp.i, label %if.then, label %if.else

if.then:                                          ; preds = %entry
  %call3 = tail call noundef ptr @_ZN3nla11nex_creator12simplify_mulEPNS_7nex_mulE(ptr noundef nonnull align 8 dereferenceable(176) %this, ptr noundef nonnull %e)
  br label %if.end9

if.else:                                          ; preds = %entry
  %vtable.i5 = load ptr, ptr %e, align 8
  %vfn.i6 = getelementptr inbounds i8, ptr %vtable.i5, i64 8
  %1 = load ptr, ptr %vfn.i6, align 8
  %call.i7 = tail call noundef i32 %1(ptr noundef nonnull align 8 dereferenceable(8) %e)
  %cmp.i8 = icmp eq i32 %call.i7, 2
  br i1 %cmp.i8, label %if.then5, label %if.end9

if.then5:                                         ; preds = %if.else
  %call7 = tail call noundef ptr @_ZN3nla11nex_creator12simplify_sumEPNS_7nex_sumE(ptr noundef nonnull align 8 dereferenceable(176) %this, ptr noundef %e)
  br label %if.end9

if.end9:                                          ; preds = %if.else, %if.then5, %if.then
  %es.0 = phi ptr [ %call3, %if.then ], [ %call7, %if.then5 ], [ %e, %if.else ]
  ret ptr %es.0
}